
;CodeVisionAVR C Compiler V2.05.0 Professional
;(C) Copyright 1998-2010 Pavel Haiduc, HP InfoTech s.r.l.
;http://www.hpinfotech.com

;Chip type                : AT90LS8535
;Program type             : Application
;Clock frequency          : 1.000000 MHz
;Memory model             : Small
;Optimize for             : Size
;(s)printf features       : int, width
;(s)scanf features        : int, width
;External RAM size        : 0
;Data Stack size          : 128 byte(s)
;Heap size                : 0 byte(s)
;Promote 'char' to 'int'  : Yes
;'char' is unsigned       : Yes
;8 bit enums              : Yes
;global 'const' stored in FLASH: No
;Smart register allocation     : Off
;Automatic register allocation : On

	#pragma AVRPART ADMIN PART_NAME AT90LS8535
	#pragma AVRPART MEMORY PROG_FLASH 8192
	#pragma AVRPART MEMORY EEPROM 512
	#pragma AVRPART MEMORY INT_SRAM SIZE 607
	#pragma AVRPART MEMORY INT_SRAM START_ADDR 0x60

	.LISTMAC
	.EQU UDRE=0x5
	.EQU RXC=0x7
	.EQU USR=0xB
	.EQU UDR=0xC
	.EQU SPSR=0xE
	.EQU SPDR=0xF
	.EQU EERE=0x0
	.EQU EEWE=0x1
	.EQU EEMWE=0x2
	.EQU EECR=0x1C
	.EQU EEDR=0x1D
	.EQU EEARL=0x1E
	.EQU EEARH=0x1F
	.EQU WDTCR=0x21
	.EQU MCUCR=0x35
	.EQU SPL=0x3D
	.EQU SPH=0x3E
	.EQU SREG=0x3F

	.DEF R0X0=R0
	.DEF R0X1=R1
	.DEF R0X2=R2
	.DEF R0X3=R3
	.DEF R0X4=R4
	.DEF R0X5=R5
	.DEF R0X6=R6
	.DEF R0X7=R7
	.DEF R0X8=R8
	.DEF R0X9=R9
	.DEF R0XA=R10
	.DEF R0XB=R11
	.DEF R0XC=R12
	.DEF R0XD=R13
	.DEF R0XE=R14
	.DEF R0XF=R15
	.DEF R0X10=R16
	.DEF R0X11=R17
	.DEF R0X12=R18
	.DEF R0X13=R19
	.DEF R0X14=R20
	.DEF R0X15=R21
	.DEF R0X16=R22
	.DEF R0X17=R23
	.DEF R0X18=R24
	.DEF R0X19=R25
	.DEF R0X1A=R26
	.DEF R0X1B=R27
	.DEF R0X1C=R28
	.DEF R0X1D=R29
	.DEF R0X1E=R30
	.DEF R0X1F=R31

	.EQU __SRAM_START=0x0060
	.EQU __SRAM_END=0x025F
	.EQU __DSTACK_SIZE=0x0080
	.EQU __HEAP_SIZE=0x0000
	.EQU __CLEAR_SRAM_SIZE=__SRAM_END-__SRAM_START+1

	.MACRO __CPD1N
	CPI  R30,LOW(@0)
	LDI  R26,HIGH(@0)
	CPC  R31,R26
	LDI  R26,BYTE3(@0)
	CPC  R22,R26
	LDI  R26,BYTE4(@0)
	CPC  R23,R26
	.ENDM

	.MACRO __CPD2N
	CPI  R26,LOW(@0)
	LDI  R30,HIGH(@0)
	CPC  R27,R30
	LDI  R30,BYTE3(@0)
	CPC  R24,R30
	LDI  R30,BYTE4(@0)
	CPC  R25,R30
	.ENDM

	.MACRO __CPWRR
	CP   R@0,R@2
	CPC  R@1,R@3
	.ENDM

	.MACRO __CPWRN
	CPI  R@0,LOW(@2)
	LDI  R30,HIGH(@2)
	CPC  R@1,R30
	.ENDM

	.MACRO __ADDB1MN
	SUBI R30,LOW(-@0-(@1))
	.ENDM

	.MACRO __ADDB2MN
	SUBI R26,LOW(-@0-(@1))
	.ENDM

	.MACRO __ADDW1MN
	SUBI R30,LOW(-@0-(@1))
	SBCI R31,HIGH(-@0-(@1))
	.ENDM

	.MACRO __ADDW2MN
	SUBI R26,LOW(-@0-(@1))
	SBCI R27,HIGH(-@0-(@1))
	.ENDM

	.MACRO __ADDW1FN
	SUBI R30,LOW(-2*@0-(@1))
	SBCI R31,HIGH(-2*@0-(@1))
	.ENDM

	.MACRO __ADDD1FN
	SUBI R30,LOW(-2*@0-(@1))
	SBCI R31,HIGH(-2*@0-(@1))
	SBCI R22,BYTE3(-2*@0-(@1))
	.ENDM

	.MACRO __ADDD1N
	SUBI R30,LOW(-@0)
	SBCI R31,HIGH(-@0)
	SBCI R22,BYTE3(-@0)
	SBCI R23,BYTE4(-@0)
	.ENDM

	.MACRO __ADDD2N
	SUBI R26,LOW(-@0)
	SBCI R27,HIGH(-@0)
	SBCI R24,BYTE3(-@0)
	SBCI R25,BYTE4(-@0)
	.ENDM

	.MACRO __SUBD1N
	SUBI R30,LOW(@0)
	SBCI R31,HIGH(@0)
	SBCI R22,BYTE3(@0)
	SBCI R23,BYTE4(@0)
	.ENDM

	.MACRO __SUBD2N
	SUBI R26,LOW(@0)
	SBCI R27,HIGH(@0)
	SBCI R24,BYTE3(@0)
	SBCI R25,BYTE4(@0)
	.ENDM

	.MACRO __ANDBMNN
	LDS  R30,@0+(@1)
	ANDI R30,LOW(@2)
	STS  @0+(@1),R30
	.ENDM

	.MACRO __ANDWMNN
	LDS  R30,@0+(@1)
	ANDI R30,LOW(@2)
	STS  @0+(@1),R30
	LDS  R30,@0+(@1)+1
	ANDI R30,HIGH(@2)
	STS  @0+(@1)+1,R30
	.ENDM

	.MACRO __ANDD1N
	ANDI R30,LOW(@0)
	ANDI R31,HIGH(@0)
	ANDI R22,BYTE3(@0)
	ANDI R23,BYTE4(@0)
	.ENDM

	.MACRO __ANDD2N
	ANDI R26,LOW(@0)
	ANDI R27,HIGH(@0)
	ANDI R24,BYTE3(@0)
	ANDI R25,BYTE4(@0)
	.ENDM

	.MACRO __ORBMNN
	LDS  R30,@0+(@1)
	ORI  R30,LOW(@2)
	STS  @0+(@1),R30
	.ENDM

	.MACRO __ORWMNN
	LDS  R30,@0+(@1)
	ORI  R30,LOW(@2)
	STS  @0+(@1),R30
	LDS  R30,@0+(@1)+1
	ORI  R30,HIGH(@2)
	STS  @0+(@1)+1,R30
	.ENDM

	.MACRO __ORD1N
	ORI  R30,LOW(@0)
	ORI  R31,HIGH(@0)
	ORI  R22,BYTE3(@0)
	ORI  R23,BYTE4(@0)
	.ENDM

	.MACRO __ORD2N
	ORI  R26,LOW(@0)
	ORI  R27,HIGH(@0)
	ORI  R24,BYTE3(@0)
	ORI  R25,BYTE4(@0)
	.ENDM

	.MACRO __DELAY_USB
	LDI  R24,LOW(@0)
__DELAY_USB_LOOP:
	DEC  R24
	BRNE __DELAY_USB_LOOP
	.ENDM

	.MACRO __DELAY_USW
	LDI  R24,LOW(@0)
	LDI  R25,HIGH(@0)
__DELAY_USW_LOOP:
	SBIW R24,1
	BRNE __DELAY_USW_LOOP
	.ENDM

	.MACRO __GETD1S
	LDD  R30,Y+@0
	LDD  R31,Y+@0+1
	LDD  R22,Y+@0+2
	LDD  R23,Y+@0+3
	.ENDM

	.MACRO __GETD2S
	LDD  R26,Y+@0
	LDD  R27,Y+@0+1
	LDD  R24,Y+@0+2
	LDD  R25,Y+@0+3
	.ENDM

	.MACRO __PUTD1S
	STD  Y+@0,R30
	STD  Y+@0+1,R31
	STD  Y+@0+2,R22
	STD  Y+@0+3,R23
	.ENDM

	.MACRO __PUTD2S
	STD  Y+@0,R26
	STD  Y+@0+1,R27
	STD  Y+@0+2,R24
	STD  Y+@0+3,R25
	.ENDM

	.MACRO __PUTDZ2
	STD  Z+@0,R26
	STD  Z+@0+1,R27
	STD  Z+@0+2,R24
	STD  Z+@0+3,R25
	.ENDM

	.MACRO __CLRD1S
	STD  Y+@0,R30
	STD  Y+@0+1,R30
	STD  Y+@0+2,R30
	STD  Y+@0+3,R30
	.ENDM

	.MACRO __POINTB1MN
	LDI  R30,LOW(@0+(@1))
	.ENDM

	.MACRO __POINTW1MN
	LDI  R30,LOW(@0+(@1))
	LDI  R31,HIGH(@0+(@1))
	.ENDM

	.MACRO __POINTD1M
	LDI  R30,LOW(@0)
	LDI  R31,HIGH(@0)
	LDI  R22,BYTE3(@0)
	LDI  R23,BYTE4(@0)
	.ENDM

	.MACRO __POINTW1FN
	LDI  R30,LOW(2*@0+(@1))
	LDI  R31,HIGH(2*@0+(@1))
	.ENDM

	.MACRO __POINTD1FN
	LDI  R30,LOW(2*@0+(@1))
	LDI  R31,HIGH(2*@0+(@1))
	LDI  R22,BYTE3(2*@0+(@1))
	LDI  R23,BYTE4(2*@0+(@1))
	.ENDM

	.MACRO __POINTB2MN
	LDI  R26,LOW(@0+(@1))
	.ENDM

	.MACRO __POINTW2MN
	LDI  R26,LOW(@0+(@1))
	LDI  R27,HIGH(@0+(@1))
	.ENDM

	.MACRO __POINTBRM
	LDI  R@0,LOW(@1)
	.ENDM

	.MACRO __POINTWRM
	LDI  R@0,LOW(@2)
	LDI  R@1,HIGH(@2)
	.ENDM

	.MACRO __POINTBRMN
	LDI  R@0,LOW(@1+(@2))
	.ENDM

	.MACRO __POINTWRMN
	LDI  R@0,LOW(@2+(@3))
	LDI  R@1,HIGH(@2+(@3))
	.ENDM

	.MACRO __POINTWRFN
	LDI  R@0,LOW(@2*2+(@3))
	LDI  R@1,HIGH(@2*2+(@3))
	.ENDM

	.MACRO __GETD1N
	LDI  R30,LOW(@0)
	LDI  R31,HIGH(@0)
	LDI  R22,BYTE3(@0)
	LDI  R23,BYTE4(@0)
	.ENDM

	.MACRO __GETD2N
	LDI  R26,LOW(@0)
	LDI  R27,HIGH(@0)
	LDI  R24,BYTE3(@0)
	LDI  R25,BYTE4(@0)
	.ENDM

	.MACRO __GETB1MN
	LDS  R30,@0+(@1)
	.ENDM

	.MACRO __GETB1HMN
	LDS  R31,@0+(@1)
	.ENDM

	.MACRO __GETW1MN
	LDS  R30,@0+(@1)
	LDS  R31,@0+(@1)+1
	.ENDM

	.MACRO __GETD1MN
	LDS  R30,@0+(@1)
	LDS  R31,@0+(@1)+1
	LDS  R22,@0+(@1)+2
	LDS  R23,@0+(@1)+3
	.ENDM

	.MACRO __GETBRMN
	LDS  R@0,@1+(@2)
	.ENDM

	.MACRO __GETWRMN
	LDS  R@0,@2+(@3)
	LDS  R@1,@2+(@3)+1
	.ENDM

	.MACRO __GETWRZ
	LDD  R@0,Z+@2
	LDD  R@1,Z+@2+1
	.ENDM

	.MACRO __GETD2Z
	LDD  R26,Z+@0
	LDD  R27,Z+@0+1
	LDD  R24,Z+@0+2
	LDD  R25,Z+@0+3
	.ENDM

	.MACRO __GETB2MN
	LDS  R26,@0+(@1)
	.ENDM

	.MACRO __GETW2MN
	LDS  R26,@0+(@1)
	LDS  R27,@0+(@1)+1
	.ENDM

	.MACRO __GETD2MN
	LDS  R26,@0+(@1)
	LDS  R27,@0+(@1)+1
	LDS  R24,@0+(@1)+2
	LDS  R25,@0+(@1)+3
	.ENDM

	.MACRO __PUTB1MN
	STS  @0+(@1),R30
	.ENDM

	.MACRO __PUTW1MN
	STS  @0+(@1),R30
	STS  @0+(@1)+1,R31
	.ENDM

	.MACRO __PUTD1MN
	STS  @0+(@1),R30
	STS  @0+(@1)+1,R31
	STS  @0+(@1)+2,R22
	STS  @0+(@1)+3,R23
	.ENDM

	.MACRO __PUTB1EN
	LDI  R26,LOW(@0+(@1))
	LDI  R27,HIGH(@0+(@1))
	RCALL __EEPROMWRB
	.ENDM

	.MACRO __PUTW1EN
	LDI  R26,LOW(@0+(@1))
	LDI  R27,HIGH(@0+(@1))
	RCALL __EEPROMWRW
	.ENDM

	.MACRO __PUTD1EN
	LDI  R26,LOW(@0+(@1))
	LDI  R27,HIGH(@0+(@1))
	RCALL __EEPROMWRD
	.ENDM

	.MACRO __PUTBR0MN
	STS  @0+(@1),R0
	.ENDM

	.MACRO __PUTBMRN
	STS  @0+(@1),R@2
	.ENDM

	.MACRO __PUTWMRN
	STS  @0+(@1),R@2
	STS  @0+(@1)+1,R@3
	.ENDM

	.MACRO __PUTBZR
	STD  Z+@1,R@0
	.ENDM

	.MACRO __PUTWZR
	STD  Z+@2,R@0
	STD  Z+@2+1,R@1
	.ENDM

	.MACRO __GETW1R
	MOV  R30,R@0
	MOV  R31,R@1
	.ENDM

	.MACRO __GETW2R
	MOV  R26,R@0
	MOV  R27,R@1
	.ENDM

	.MACRO __GETWRN
	LDI  R@0,LOW(@2)
	LDI  R@1,HIGH(@2)
	.ENDM

	.MACRO __PUTW1R
	MOV  R@0,R30
	MOV  R@1,R31
	.ENDM

	.MACRO __PUTW2R
	MOV  R@0,R26
	MOV  R@1,R27
	.ENDM

	.MACRO __ADDWRN
	SUBI R@0,LOW(-@2)
	SBCI R@1,HIGH(-@2)
	.ENDM

	.MACRO __ADDWRR
	ADD  R@0,R@2
	ADC  R@1,R@3
	.ENDM

	.MACRO __SUBWRN
	SUBI R@0,LOW(@2)
	SBCI R@1,HIGH(@2)
	.ENDM

	.MACRO __SUBWRR
	SUB  R@0,R@2
	SBC  R@1,R@3
	.ENDM

	.MACRO __ANDWRN
	ANDI R@0,LOW(@2)
	ANDI R@1,HIGH(@2)
	.ENDM

	.MACRO __ANDWRR
	AND  R@0,R@2
	AND  R@1,R@3
	.ENDM

	.MACRO __ORWRN
	ORI  R@0,LOW(@2)
	ORI  R@1,HIGH(@2)
	.ENDM

	.MACRO __ORWRR
	OR   R@0,R@2
	OR   R@1,R@3
	.ENDM

	.MACRO __EORWRR
	EOR  R@0,R@2
	EOR  R@1,R@3
	.ENDM

	.MACRO __GETWRS
	LDD  R@0,Y+@2
	LDD  R@1,Y+@2+1
	.ENDM

	.MACRO __PUTBSR
	STD  Y+@1,R@0
	.ENDM

	.MACRO __PUTWSR
	STD  Y+@2,R@0
	STD  Y+@2+1,R@1
	.ENDM

	.MACRO __MOVEWRR
	MOV  R@0,R@2
	MOV  R@1,R@3
	.ENDM

	.MACRO __INWR
	IN   R@0,@2
	IN   R@1,@2+1
	.ENDM

	.MACRO __OUTWR
	OUT  @2+1,R@1
	OUT  @2,R@0
	.ENDM

	.MACRO __CALL1MN
	LDS  R30,@0+(@1)
	LDS  R31,@0+(@1)+1
	ICALL
	.ENDM

	.MACRO __CALL1FN
	LDI  R30,LOW(2*@0+(@1))
	LDI  R31,HIGH(2*@0+(@1))
	RCALL __GETW1PF
	ICALL
	.ENDM

	.MACRO __CALL2EN
	LDI  R26,LOW(@0+(@1))
	LDI  R27,HIGH(@0+(@1))
	RCALL __EEPROMRDW
	ICALL
	.ENDM

	.MACRO __GETW1STACK
	IN   R26,SPL
	IN   R27,SPH
	ADIW R26,@0+1
	LD   R30,X+
	LD   R31,X
	.ENDM

	.MACRO __GETD1STACK
	IN   R26,SPL
	IN   R27,SPH
	ADIW R26,@0+1
	LD   R30,X+
	LD   R31,X+
	LD   R22,X
	.ENDM

	.MACRO __NBST
	BST  R@0,@1
	IN   R30,SREG
	LDI  R31,0x40
	EOR  R30,R31
	OUT  SREG,R30
	.ENDM


	.MACRO __PUTB1SN
	LDD  R26,Y+@0
	LDD  R27,Y+@0+1
	SUBI R26,LOW(-@1)
	SBCI R27,HIGH(-@1)
	ST   X,R30
	.ENDM

	.MACRO __PUTW1SN
	LDD  R26,Y+@0
	LDD  R27,Y+@0+1
	SUBI R26,LOW(-@1)
	SBCI R27,HIGH(-@1)
	ST   X+,R30
	ST   X,R31
	.ENDM

	.MACRO __PUTD1SN
	LDD  R26,Y+@0
	LDD  R27,Y+@0+1
	SUBI R26,LOW(-@1)
	SBCI R27,HIGH(-@1)
	RCALL __PUTDP1
	.ENDM

	.MACRO __PUTB1SNS
	LDD  R26,Y+@0
	LDD  R27,Y+@0+1
	ADIW R26,@1
	ST   X,R30
	.ENDM

	.MACRO __PUTW1SNS
	LDD  R26,Y+@0
	LDD  R27,Y+@0+1
	ADIW R26,@1
	ST   X+,R30
	ST   X,R31
	.ENDM

	.MACRO __PUTD1SNS
	LDD  R26,Y+@0
	LDD  R27,Y+@0+1
	ADIW R26,@1
	RCALL __PUTDP1
	.ENDM

	.MACRO __PUTB1PMN
	LDS  R26,@0
	LDS  R27,@0+1
	SUBI R26,LOW(-@1)
	SBCI R27,HIGH(-@1)
	ST   X,R30
	.ENDM

	.MACRO __PUTW1PMN
	LDS  R26,@0
	LDS  R27,@0+1
	SUBI R26,LOW(-@1)
	SBCI R27,HIGH(-@1)
	ST   X+,R30
	ST   X,R31
	.ENDM

	.MACRO __PUTD1PMN
	LDS  R26,@0
	LDS  R27,@0+1
	SUBI R26,LOW(-@1)
	SBCI R27,HIGH(-@1)
	RCALL __PUTDP1
	.ENDM

	.MACRO __PUTB1PMNS
	LDS  R26,@0
	LDS  R27,@0+1
	ADIW R26,@1
	ST   X,R30
	.ENDM

	.MACRO __PUTW1PMNS
	LDS  R26,@0
	LDS  R27,@0+1
	ADIW R26,@1
	ST   X+,R30
	ST   X,R31
	.ENDM

	.MACRO __PUTD1PMNS
	LDS  R26,@0
	LDS  R27,@0+1
	ADIW R26,@1
	RCALL __PUTDP1
	.ENDM

	.MACRO __PUTB1RN
	MOV  R26,R@0
	MOV  R27,R@1
	SUBI R26,LOW(-@2)
	SBCI R27,HIGH(-@2)
	ST   X,R30
	.ENDM

	.MACRO __PUTW1RN
	MOV  R26,R@0
	MOV  R27,R@1
	SUBI R26,LOW(-@2)
	SBCI R27,HIGH(-@2)
	ST   X+,R30
	ST   X,R31
	.ENDM

	.MACRO __PUTD1RN
	MOV  R26,R@0
	MOV  R27,R@1
	SUBI R26,LOW(-@2)
	SBCI R27,HIGH(-@2)
	RCALL __PUTDP1
	.ENDM

	.MACRO __PUTB1RNS
	MOV  R26,R@0
	MOV  R27,R@1
	ADIW R26,@2
	ST   X,R30
	.ENDM

	.MACRO __PUTW1RNS
	MOV  R26,R@0
	MOV  R27,R@1
	ADIW R26,@2
	ST   X+,R30
	ST   X,R31
	.ENDM

	.MACRO __PUTD1RNS
	MOV  R26,R@0
	MOV  R27,R@1
	ADIW R26,@2
	RCALL __PUTDP1
	.ENDM


	.MACRO __GETB1SX
	MOV  R30,R28
	MOV  R31,R29
	SUBI R30,LOW(-@0)
	SBCI R31,HIGH(-@0)
	LD   R30,Z
	.ENDM

	.MACRO __GETB1HSX
	MOV  R30,R28
	MOV  R31,R29
	SUBI R30,LOW(-@0)
	SBCI R31,HIGH(-@0)
	LD   R31,Z
	.ENDM

	.MACRO __GETW1SX
	MOV  R30,R28
	MOV  R31,R29
	SUBI R30,LOW(-@0)
	SBCI R31,HIGH(-@0)
	LD   R0,Z+
	LD   R31,Z
	MOV  R30,R0
	.ENDM

	.MACRO __GETD1SX
	MOV  R30,R28
	MOV  R31,R29
	SUBI R30,LOW(-@0)
	SBCI R31,HIGH(-@0)
	LD   R0,Z+
	LD   R1,Z+
	LD   R22,Z+
	LD   R23,Z
	MOV  R30,R0
	MOV  R31,R1
	.ENDM

	.MACRO __GETB2SX
	MOV  R26,R28
	MOV  R27,R29
	SUBI R26,LOW(-@0)
	SBCI R27,HIGH(-@0)
	LD   R26,X
	.ENDM

	.MACRO __GETW2SX
	MOV  R26,R28
	MOV  R27,R29
	SUBI R26,LOW(-@0)
	SBCI R27,HIGH(-@0)
	LD   R0,X+
	LD   R27,X
	MOV  R26,R0
	.ENDM

	.MACRO __GETD2SX
	MOV  R26,R28
	MOV  R27,R29
	SUBI R26,LOW(-@0)
	SBCI R27,HIGH(-@0)
	LD   R0,X+
	LD   R1,X+
	LD   R24,X+
	LD   R25,X
	MOV  R26,R0
	MOV  R27,R1
	.ENDM

	.MACRO __GETBRSX
	MOV  R30,R28
	MOV  R31,R29
	SUBI R30,LOW(-@1)
	SBCI R31,HIGH(-@1)
	LD   R@0,Z
	.ENDM

	.MACRO __GETWRSX
	MOV  R30,R28
	MOV  R31,R29
	SUBI R30,LOW(-@2)
	SBCI R31,HIGH(-@2)
	LD   R@0,Z+
	LD   R@1,Z
	.ENDM

	.MACRO __GETBRSX2
	MOV  R26,R28
	MOV  R27,R29
	SUBI R26,LOW(-@1)
	SBCI R27,HIGH(-@1)
	LD   R@0,X
	.ENDM

	.MACRO __GETWRSX2
	MOV  R26,R28
	MOV  R27,R29
	SUBI R26,LOW(-@2)
	SBCI R27,HIGH(-@2)
	LD   R@0,X+
	LD   R@1,X
	.ENDM

	.MACRO __LSLW8SX
	MOV  R30,R28
	MOV  R31,R29
	SUBI R30,LOW(-@0)
	SBCI R31,HIGH(-@0)
	LD   R31,Z
	CLR  R30
	.ENDM

	.MACRO __PUTB1SX
	MOV  R26,R28
	MOV  R27,R29
	SUBI R26,LOW(-@0)
	SBCI R27,HIGH(-@0)
	ST   X,R30
	.ENDM

	.MACRO __PUTW1SX
	MOV  R26,R28
	MOV  R27,R29
	SUBI R26,LOW(-@0)
	SBCI R27,HIGH(-@0)
	ST   X+,R30
	ST   X,R31
	.ENDM

	.MACRO __PUTD1SX
	MOV  R26,R28
	MOV  R27,R29
	SUBI R26,LOW(-@0)
	SBCI R27,HIGH(-@0)
	ST   X+,R30
	ST   X+,R31
	ST   X+,R22
	ST   X,R23
	.ENDM

	.MACRO __CLRW1SX
	MOV  R26,R28
	MOV  R27,R29
	SUBI R26,LOW(-@0)
	SBCI R27,HIGH(-@0)
	ST   X+,R30
	ST   X,R30
	.ENDM

	.MACRO __CLRD1SX
	MOV  R26,R28
	MOV  R27,R29
	SUBI R26,LOW(-@0)
	SBCI R27,HIGH(-@0)
	ST   X+,R30
	ST   X+,R30
	ST   X+,R30
	ST   X,R30
	.ENDM

	.MACRO __PUTB2SX
	MOV  R30,R28
	MOV  R31,R29
	SUBI R30,LOW(-@0)
	SBCI R31,HIGH(-@0)
	ST   Z,R26
	.ENDM

	.MACRO __PUTW2SX
	MOV  R30,R28
	MOV  R31,R29
	SUBI R30,LOW(-@0)
	SBCI R31,HIGH(-@0)
	ST   Z+,R26
	ST   Z,R27
	.ENDM

	.MACRO __PUTD2SX
	MOV  R30,R28
	MOV  R31,R29
	SUBI R30,LOW(-@0)
	SBCI R31,HIGH(-@0)
	ST   Z+,R26
	ST   Z+,R27
	ST   Z+,R24
	ST   Z,R25
	.ENDM

	.MACRO __PUTBSRX
	MOV  R30,R28
	MOV  R31,R29
	SUBI R30,LOW(-@1)
	SBCI R31,HIGH(-@1)
	ST   Z,R@0
	.ENDM

	.MACRO __PUTWSRX
	MOV  R30,R28
	MOV  R31,R29
	SUBI R30,LOW(-@2)
	SBCI R31,HIGH(-@2)
	ST   Z+,R@0
	ST   Z,R@1
	.ENDM

	.MACRO __PUTB1SNX
	MOV  R26,R28
	MOV  R27,R29
	SUBI R26,LOW(-@0)
	SBCI R27,HIGH(-@0)
	LD   R0,X+
	LD   R27,X
	MOV  R26,R0
	SUBI R26,LOW(-@1)
	SBCI R27,HIGH(-@1)
	ST   X,R30
	.ENDM

	.MACRO __PUTW1SNX
	MOV  R26,R28
	MOV  R27,R29
	SUBI R26,LOW(-@0)
	SBCI R27,HIGH(-@0)
	LD   R0,X+
	LD   R27,X
	MOV  R26,R0
	SUBI R26,LOW(-@1)
	SBCI R27,HIGH(-@1)
	ST   X+,R30
	ST   X,R31
	.ENDM

	.MACRO __PUTD1SNX
	MOV  R26,R28
	MOV  R27,R29
	SUBI R26,LOW(-@0)
	SBCI R27,HIGH(-@0)
	LD   R0,X+
	LD   R27,X
	MOV  R26,R0
	SUBI R26,LOW(-@1)
	SBCI R27,HIGH(-@1)
	ST   X+,R30
	ST   X+,R31
	ST   X+,R22
	ST   X,R23
	.ENDM

;NAME DEFINITIONS FOR GLOBAL VARIABLES ALLOCATED TO REGISTERS
	.DEF _con=R4

	.CSEG
	.ORG 0x00

;START OF CODE MARKER
__START_OF_CODE:

;INTERRUPT VECTORS
	RJMP __RESET
	RJMP 0x00
	RJMP 0x00
	RJMP 0x00
	RJMP 0x00
	RJMP 0x00
	RJMP 0x00
	RJMP 0x00
	RJMP 0x00
	RJMP 0x00
	RJMP 0x00
	RJMP 0x00
	RJMP 0x00
	RJMP 0x00
	RJMP 0x00
	RJMP 0x00
	RJMP 0x00

_0x3:
	.DB  0x3F,0x6,0x5B,0x4F,0x66,0x6D,0x7C,0x7
	.DB  0x7F,0x6F

__GLOBAL_INI_TBL:
	.DW  0x0A
	.DW  _tab7seg
	.DW  _0x3*2

_0xFFFFFFFF:
	.DW  0

__RESET:
	CLI
	CLR  R30
	OUT  EECR,R30
	OUT  MCUCR,R30

;DISABLE WATCHDOG
	LDI  R31,0x18
	OUT  WDTCR,R31
	OUT  WDTCR,R30

;CLEAR R2-R14
	LDI  R24,(14-2)+1
	LDI  R26,2
	CLR  R27
__CLEAR_REG:
	ST   X+,R30
	DEC  R24
	BRNE __CLEAR_REG

;CLEAR SRAM
	LDI  R24,LOW(__CLEAR_SRAM_SIZE)
	LDI  R25,HIGH(__CLEAR_SRAM_SIZE)
	LDI  R26,__SRAM_START
__CLEAR_SRAM:
	ST   X+,R30
	SBIW R24,1
	BRNE __CLEAR_SRAM

;GLOBAL VARIABLES INITIALIZATION
	LDI  R30,LOW(__GLOBAL_INI_TBL*2)
	LDI  R31,HIGH(__GLOBAL_INI_TBL*2)
__GLOBAL_INI_NEXT:
	LPM
	ADIW R30,1
	MOV  R24,R0
	LPM
	ADIW R30,1
	MOV  R25,R0
	SBIW R24,0
	BREQ __GLOBAL_INI_END
	LPM
	ADIW R30,1
	MOV  R26,R0
	LPM
	ADIW R30,1
	MOV  R27,R0
	LPM
	ADIW R30,1
	MOV  R1,R0
	LPM
	ADIW R30,1
	MOV  R22,R30
	MOV  R23,R31
	MOV  R31,R0
	MOV  R30,R1
__GLOBAL_INI_LOOP:
	LPM
	ADIW R30,1
	ST   X+,R0
	SBIW R24,1
	BRNE __GLOBAL_INI_LOOP
	MOV  R30,R22
	MOV  R31,R23
	RJMP __GLOBAL_INI_NEXT
__GLOBAL_INI_END:

;HARDWARE STACK POINTER INITIALIZATION
	LDI  R30,LOW(__SRAM_END-__HEAP_SIZE)
	OUT  SPL,R30
	LDI  R30,HIGH(__SRAM_END-__HEAP_SIZE)
	OUT  SPH,R30

;DATA STACK POINTER INITIALIZATION
	LDI  R28,LOW(__SRAM_START+__DSTACK_SIZE)
	LDI  R29,HIGH(__SRAM_START+__DSTACK_SIZE)

	RJMP _main

	.ESEG
	.ORG 0

	.DSEG
	.ORG 0xE0

	.CSEG
;#include <mega8535.h>
	#ifndef __SLEEP_DEFINED__
	#define __SLEEP_DEFINED__
	.EQU __se_bit=0x40
	.EQU __sm_mask=0xB0
	.EQU __sm_powerdown=0x20
	.EQU __sm_powersave=0x30
	.EQU __sm_standby=0xA0
	.EQU __sm_ext_standby=0xB0
	.EQU __sm_adc_noise_red=0x10
	.SET power_ctrl_reg=mcucr
	#endif
;#include <delay.h>
;
;
;const char tab7seg [10]={0x3F,0x06, 0x5b, 0x4f, 0x66, 0x6d, 0x7c, 0x07, 0x7f, 0x6f};

	.DSEG
;
;#define S0 PORTB.0
;#define S1 PORTB.1
;#define S2 PORTB.2
;
;#define E0 PINB.4
;#define E1 PINB.5
;#define E2 PINB.6
;
;unsigned char con;
;
;void main(void)
; 0000 0012 {

	.CSEG
_main:
; 0000 0013 
; 0000 0014 PORTA=0x00;
	LDI  R30,LOW(0)
	OUT  0x1B,R30
; 0000 0015 DDRA=0x00;
	OUT  0x1A,R30
; 0000 0016 PORTD=0x00;
	OUT  0x12,R30
; 0000 0017 DDRD=0x00;
	OUT  0x11,R30
; 0000 0018 
; 0000 0019 DDRC=0xFF;//salida hacia el DISPLAY
	LDI  R30,LOW(255)
	OUT  0x14,R30
; 0000 001A PORTC=0x00;
	LDI  R30,LOW(0)
	OUT  0x15,R30
; 0000 001B 
; 0000 001C DDRB=0x0F;//mitad entrada/salida  TECLADO
	LDI  R30,LOW(15)
	OUT  0x17,R30
; 0000 001D PORTB=0xFF;//unos a la salida del teclado/con pull up a la entrada del teclado
	LDI  R30,LOW(255)
	OUT  0x18,R30
; 0000 001E 
; 0000 001F TCCR0=0x00;
	LDI  R30,LOW(0)
	OUT  0x33,R30
; 0000 0020 TCNT0=0x00;
	OUT  0x32,R30
; 0000 0021 TCCR1A=0x00;
	OUT  0x2F,R30
; 0000 0022 TCCR1B=0x00;
	OUT  0x2E,R30
; 0000 0023 TCNT1H=0x00;
	OUT  0x2D,R30
; 0000 0024 TCNT1L=0x00;
	OUT  0x2C,R30
; 0000 0025 OCR1AH=0x00;
	OUT  0x2B,R30
; 0000 0026 OCR1AL=0x00;
	OUT  0x2A,R30
; 0000 0027 OCR1BH=0x00;
	OUT  0x29,R30
; 0000 0028 OCR1BL=0x00;
	OUT  0x28,R30
; 0000 0029 ASSR=0x00;
	OUT  0x22,R30
; 0000 002A TCCR2=0x00;
	OUT  0x25,R30
; 0000 002B TCNT2=0x00;
	OUT  0x24,R30
; 0000 002C OCR2=0x00;
	OUT  0x23,R30
; 0000 002D GIMSK=0x00;
	OUT  0x3B,R30
; 0000 002E MCUCR=0x00;
	OUT  0x35,R30
; 0000 002F TIMSK=0x00;
	OUT  0x39,R30
; 0000 0030 ACSR=0x80;
	LDI  R30,LOW(128)
	OUT  0x8,R30
; 0000 0031 ADCSR=0x00;
	LDI  R30,LOW(0)
	OUT  0x6,R30
; 0000 0032 SPCR=0x00;
	OUT  0xD,R30
; 0000 0033 
; 0000 0034 while (1)
_0x4:
; 0000 0035       {
; 0000 0036 
; 0000 0037         con=0;
	RCALL SUBOPT_0x0
; 0000 0038         delay_ms(40);
; 0000 0039         S0=0;//col 0
	CBI  0x18,0
; 0000 003A         S1=1;//col 1
	SBI  0x18,1
; 0000 003B         S2=1;//col 2
	RCALL SUBOPT_0x1
; 0000 003C 
; 0000 003D         if(E0 == 0 && E1 == 1 && E2 == 1)
	BRNE _0xE
	SBIS 0x16,5
	RJMP _0xE
	SBIC 0x16,6
	RJMP _0xF
_0xE:
	RJMP _0xD
_0xF:
; 0000 003E             PORTC= tab7seg[1];
	__GETB1MN _tab7seg,1
	OUT  0x15,R30
; 0000 003F             //PORTC= ~tab7seg[1];
; 0000 0040         if(E0 == 1 && E1 == 0 && E2 == 1)
_0xD:
	SBIS 0x16,4
	RJMP _0x11
	RCALL SUBOPT_0x2
	BRNE _0x11
	SBIC 0x16,6
	RJMP _0x12
_0x11:
	RJMP _0x10
_0x12:
; 0000 0041             PORTC= tab7seg[2];
	__GETB1MN _tab7seg,2
	OUT  0x15,R30
; 0000 0042             //PORTC= ~tab7seg[2];
; 0000 0043         if(E0 == 1 && E1 == 1 && E2 == 0)
_0x10:
	SBIS 0x16,4
	RJMP _0x14
	SBIS 0x16,5
	RJMP _0x14
	RCALL SUBOPT_0x3
	BREQ _0x15
_0x14:
	RJMP _0x13
_0x15:
; 0000 0044             PORTC= tab7seg[3];
	__GETB1MN _tab7seg,3
	OUT  0x15,R30
; 0000 0045             //PORTC= ~tab7seg[3];
; 0000 0046         if(E0 == 1 && E1 == 1 && E2 == 1)
_0x13:
	SBIS 0x16,4
	RJMP _0x17
	SBIS 0x16,5
	RJMP _0x17
	SBIC 0x16,6
	RJMP _0x18
_0x17:
	RJMP _0x16
_0x18:
; 0000 0047             con++;
	INC  R4
; 0000 0048         delay_ms(40);
_0x16:
	RCALL SUBOPT_0x4
; 0000 0049 
; 0000 004A 
; 0000 004B         con=0;
; 0000 004C         delay_ms(40);
; 0000 004D         S0=1;//col 0
	SBI  0x18,0
; 0000 004E         S1=0;//col 1
	CBI  0x18,1
; 0000 004F         S2=1;//col 2
	RCALL SUBOPT_0x1
; 0000 0050 
; 0000 0051         if(E0 == 0 && E1 == 1 && E2 == 1)
	BRNE _0x20
	SBIS 0x16,5
	RJMP _0x20
	SBIC 0x16,6
	RJMP _0x21
_0x20:
	RJMP _0x1F
_0x21:
; 0000 0052             PORTC= tab7seg[4];
	__GETB1MN _tab7seg,4
	OUT  0x15,R30
; 0000 0053             //PORTC= ~tab7seg[4];
; 0000 0054         if(E0 == 1 && E1 == 0 && E2 == 1)
_0x1F:
	SBIS 0x16,4
	RJMP _0x23
	RCALL SUBOPT_0x2
	BRNE _0x23
	SBIC 0x16,6
	RJMP _0x24
_0x23:
	RJMP _0x22
_0x24:
; 0000 0055             PORTC= tab7seg[5];
	__GETB1MN _tab7seg,5
	OUT  0x15,R30
; 0000 0056             //PORTC= ~tab7seg[5];
; 0000 0057         if(E0 == 1 && E1 == 1 && E2 == 0)
_0x22:
	SBIS 0x16,4
	RJMP _0x26
	SBIS 0x16,5
	RJMP _0x26
	RCALL SUBOPT_0x3
	BREQ _0x27
_0x26:
	RJMP _0x25
_0x27:
; 0000 0058             PORTC= tab7seg[6];
	__GETB1MN _tab7seg,6
	OUT  0x15,R30
; 0000 0059             //PORTC= ~tab7seg[6];
; 0000 005A         if(E0 == 1 && E1 == 1 && E2 == 1)
_0x25:
	SBIS 0x16,4
	RJMP _0x29
	SBIS 0x16,5
	RJMP _0x29
	SBIC 0x16,6
	RJMP _0x2A
_0x29:
	RJMP _0x28
_0x2A:
; 0000 005B             con++;
	INC  R4
; 0000 005C         delay_ms(40);
_0x28:
	RCALL SUBOPT_0x4
; 0000 005D 
; 0000 005E 
; 0000 005F         con=0;
; 0000 0060         delay_ms(40);
; 0000 0061         S0=1;//col 0
	SBI  0x18,0
; 0000 0062         S1=1;//col 1
	SBI  0x18,1
; 0000 0063         S2=0;//col 2
	CBI  0x18,2
; 0000 0064 
; 0000 0065         if(E0 == 0 && E1 == 1 && E2 == 1)
	LDI  R26,0
	SBIC 0x16,4
	LDI  R26,1
	CPI  R26,LOW(0x0)
	BRNE _0x32
	SBIS 0x16,5
	RJMP _0x32
	SBIC 0x16,6
	RJMP _0x33
_0x32:
	RJMP _0x31
_0x33:
; 0000 0066             PORTC= tab7seg[7];
	__GETB1MN _tab7seg,7
	OUT  0x15,R30
; 0000 0067             //PORTC= ~tab7seg[7];
; 0000 0068         if(E0 == 1 && E1 == 0 && E2 == 1)
_0x31:
	SBIS 0x16,4
	RJMP _0x35
	RCALL SUBOPT_0x2
	BRNE _0x35
	SBIC 0x16,6
	RJMP _0x36
_0x35:
	RJMP _0x34
_0x36:
; 0000 0069             PORTC= tab7seg[8];
	__GETB1MN _tab7seg,8
	OUT  0x15,R30
; 0000 006A             //PORTC= ~tab7seg[8];
; 0000 006B         if(E0 == 1 && E1 == 1 && E2 == 0)
_0x34:
	SBIS 0x16,4
	RJMP _0x38
	SBIS 0x16,5
	RJMP _0x38
	RCALL SUBOPT_0x3
	BREQ _0x39
_0x38:
	RJMP _0x37
_0x39:
; 0000 006C             PORTC= tab7seg[9];
	__GETB1MN _tab7seg,9
	OUT  0x15,R30
; 0000 006D             //PORTC= ~tab7seg[9];
; 0000 006E         if(E0 == 1 && E1 == 1 && E2 == 1)
_0x37:
	SBIS 0x16,4
	RJMP _0x3B
	SBIS 0x16,5
	RJMP _0x3B
	SBIC 0x16,6
	RJMP _0x3C
_0x3B:
	RJMP _0x3A
_0x3C:
; 0000 006F             con++;
	INC  R4
; 0000 0070         delay_ms(40);
_0x3A:
	LDI  R30,LOW(40)
	LDI  R31,HIGH(40)
	ST   -Y,R31
	ST   -Y,R30
	RCALL _delay_ms
; 0000 0071       }
	RJMP _0x4
; 0000 0072 }
_0x3D:
	RJMP _0x3D

	.DSEG
_tab7seg:
	.BYTE 0xA

	.CSEG
;OPTIMIZER ADDED SUBROUTINE, CALLED 3 TIMES, CODE SIZE REDUCTION:8 WORDS
SUBOPT_0x0:
	CLR  R4
	LDI  R30,LOW(40)
	LDI  R31,HIGH(40)
	ST   -Y,R31
	ST   -Y,R30
	RJMP _delay_ms

;OPTIMIZER ADDED SUBROUTINE, CALLED 2 TIMES, CODE SIZE REDUCTION:2 WORDS
SUBOPT_0x1:
	SBI  0x18,2
	LDI  R26,0
	SBIC 0x16,4
	LDI  R26,1
	CPI  R26,LOW(0x0)
	RET

;OPTIMIZER ADDED SUBROUTINE, CALLED 3 TIMES, CODE SIZE REDUCTION:4 WORDS
SUBOPT_0x2:
	LDI  R26,0
	SBIC 0x16,5
	LDI  R26,1
	CPI  R26,LOW(0x0)
	RET

;OPTIMIZER ADDED SUBROUTINE, CALLED 3 TIMES, CODE SIZE REDUCTION:4 WORDS
SUBOPT_0x3:
	LDI  R26,0
	SBIC 0x16,6
	LDI  R26,1
	CPI  R26,LOW(0x0)
	RET

;OPTIMIZER ADDED SUBROUTINE, CALLED 2 TIMES, CODE SIZE REDUCTION:3 WORDS
SUBOPT_0x4:
	LDI  R30,LOW(40)
	LDI  R31,HIGH(40)
	ST   -Y,R31
	ST   -Y,R30
	RCALL _delay_ms
	RJMP SUBOPT_0x0


	.CSEG
_delay_ms:
	ld   r30,y+
	ld   r31,y+
	adiw r30,0
	breq __delay_ms1
__delay_ms0:
	__DELAY_USW 0xFA
	wdr
	sbiw r30,1
	brne __delay_ms0
__delay_ms1:
	ret

;END OF CODE MARKER
__END_OF_CODE:
